target datalayout = "e-m:e-p270:32:32-p271:32:32-p272:64:64-i64:64-i128:128-f80:128-n8:16:32:64-S128"
target triple = "x86_64-unknown-linux-gnu"

; Function Attrs: mustprogress nounwind uwtable
define noundef ptr @_ZN6icu_758ByteSink15GetAppendBufferEiiPciPi(ptr noundef nonnull align 8 dereferenceable(8) %this, i32 noundef %min_capacity, i32 noundef %0, ptr noundef %scratch, i32 noundef %scratch_capacity, ptr noundef %result_capacity) unnamed_addr #0 align 2 {
entry:
  %retval = alloca ptr, align 8
  %this.addr = alloca ptr, align 8
  %min_capacity.addr = alloca i32, align 4
  %.addr = alloca i32, align 4
  %scratch.addr = alloca ptr, align 8
  %scratch_capacity.addr = alloca i32, align 4
  %result_capacity.addr = alloca ptr, align 8
  store ptr %this, ptr %this.addr, align 8
  store i32 %min_capacity, ptr %min_capacity.addr, align 4
  store i32 %0, ptr %.addr, align 4
  store ptr %scratch, ptr %scratch.addr, align 8
  store i32 %scratch_capacity, ptr %scratch_capacity.addr, align 4
  store ptr %result_capacity, ptr %result_capacity.addr, align 8
  %1 = load i32, ptr %min_capacity.addr, align 4
  %cmp = icmp slt i32 %1, 1
  br i1 %cmp, label %if.then, label %lor.lhs.false

lor.lhs.false:                                    ; preds = %entry
  %2 = load i32, ptr %scratch_capacity.addr, align 4
  %3 = load i32, ptr %min_capacity.addr, align 4
  %cmp2 = icmp slt i32 %2, %3
  br i1 %cmp2, label %if.then, label %if.end

if.then:                                          ; preds = %lor.lhs.false, %entry
  %4 = load ptr, ptr %result_capacity.addr, align 8
  store i32 0, ptr %4, align 4
  store ptr null, ptr %retval, align 8
  br label %return

if.end:                                           ; preds = %lor.lhs.false
  %5 = load i32, ptr %scratch_capacity.addr, align 4
  %6 = load ptr, ptr %result_capacity.addr, align 8
  store i32 %5, ptr %6, align 4
  %7 = load ptr, ptr %scratch.addr, align 8
  store ptr %7, ptr %retval, align 8
  br label %return

return:                                           ; preds = %if.end, %if.then
  %8 = load ptr, ptr %retval, align 8
  ret ptr %8
}