; Function Attrs: mustprogress nofree norecurse nosync nounwind willreturn memory(argmem: write) uwtable
define noundef ptr @_ZN6icu_758ByteSink15GetAppendBufferEiiPciPi(ptr nocapture nonnull readnone align 8 %this, i32 noundef %min_capacity, i32 %0, ptr noundef readnone %scratch, i32 noundef %scratch_capacity, ptr nocapture noundef writeonly %result_capacity) unnamed_addr #3 align 2 {
entry:
  %cmp = icmp slt i32 %min_capacity, 1
  %cmp2 = icmp slt i32 %scratch_capacity, %min_capacity
  %or.cond = or i1 %cmp, %cmp2
  %storemerge = select i1 %or.cond, i32 0, i32 %scratch_capacity
  %retval.0 = select i1 %or.cond, ptr null, ptr %scratch
  store i32 %storemerge, ptr %result_capacity, align 4
  ret ptr %retval.0
}